; Function Attrs: mustprogress uwtable
define hidden noundef zeroext i1 @_ZN6google8protobuf11MessageLite23ParseFromFileDescriptorEi(ptr noundef nonnull align 8 dereferenceable(16) %0, i32 noundef %1) local_unnamed_addr #3 align 2 personality ptr @__gxx_personality_v0 {
  %3 = alloca %"class.google::protobuf::internal::ParseContext", align 8
  %4 = alloca %"class.google::protobuf::io::FileInputStream", align 8
  call void @llvm.lifetime.start.p0(i64 88, ptr nonnull %4) #20
  call void @_ZN6google8protobuf2io15FileInputStreamC1Eii(ptr noundef nonnull align 8 dereferenceable(88) %4, i32 noundef %1, i32 noundef -1)
  %5 = load ptr, ptr %0, align 8, !tbaa !25
  %6 = getelementptr inbounds nuw i8, ptr %5, i64 32
  %7 = load ptr, ptr %6, align 8
  invoke void %7(ptr noundef nonnull align 8 dereferenceable(16) %0)
          to label %.noexc unwind label %36

.noexc:                                           ; preds = %2
  call void @llvm.lifetime.start.p0(i64 120, ptr nonnull %3) #20
  %8 = load i32, ptr @_ZN6google8protobuf2io16CodedInputStream24default_recursion_limit_E, align 4, !tbaa !3
  %9 = getelementptr inbounds nuw i8, ptr %3, i64 32
  %10 = getelementptr inbounds nuw i8, ptr %3, i64 80
  %11 = getelementptr inbounds nuw i8, ptr %3, i64 84
  call void @llvm.memset.p0.i64(ptr noundef nonnull align 8 dereferenceable(52) %9, i8 0, i64 52, i1 false)
  store i32 2147483647, ptr %11, align 4, !tbaa !19
  %12 = getelementptr inbounds nuw i8, ptr %3, i64 88
  store i32 %8, ptr %12, align 8, !tbaa !7
  %13 = getelementptr inbounds nuw i8, ptr %3, i64 92
  store i32 -2147483648, ptr %13, align 4, !tbaa !18
  %14 = getelementptr inbounds nuw i8, ptr %3, i64 96
  call void @llvm.memset.p0.i64(ptr noundef nonnull align 8 dereferenceable(24) %14, i8 0, i64 24, i1 false)
  %15 = invoke noundef ptr @_ZN6google8protobuf8internal18EpsCopyInputStream8InitFromEPNS0_2io19ZeroCopyInputStreamE(ptr noundef nonnull align 8 dereferenceable(120) %3, ptr noundef nonnull %4)
          to label %.noexc3 unwind label %36

.noexc3:                                          ; preds = %.noexc
  %16 = load ptr, ptr %0, align 8, !tbaa !25
  %17 = getelementptr inbounds nuw i8, ptr %16, i64 80
  %18 = load ptr, ptr %17, align 8
  %19 = invoke noundef ptr %18(ptr noundef nonnull align 8 dereferenceable(16) %0, ptr noundef %15, ptr noundef nonnull %3)
          to label %.noexc4 unwind label %36

.noexc4:                                          ; preds = %.noexc3
  %.not.i.i.i = icmp ne ptr %19, null
  %20 = load i32, ptr %10, align 8
  %21 = icmp eq i32 %20, 1
  %or.cond.i.i.i = select i1 %.not.i.i.i, i1 %21, i1 false
  br i1 %or.cond.i.i.i, label %22, label %.thread, !prof !27

22:                                               ; preds = %.noexc4
  %23 = load ptr, ptr %0, align 8, !tbaa !25
  %24 = getelementptr inbounds nuw i8, ptr %23, i64 40
  %25 = load ptr, ptr %24, align 8
  %26 = invoke noundef zeroext i1 %25(ptr noundef nonnull align 8 dereferenceable(16) %0)
          to label %.noexc5 unwind label %36

.noexc5:                                          ; preds = %22
  br i1 %26, label %28, label %27

27:                                               ; preds = %.noexc5
  invoke void @_ZNK6google8protobuf11MessageLite29LogInitializationErrorMessageEv(ptr noundef nonnull align 8 dereferenceable(16) %0)
          to label %.thread unwind label %36

.thread:                                          ; preds = %.noexc4, %27
  call void @llvm.lifetime.end.p0(i64 120, ptr nonnull %3) #20
  br label %32

28:                                               ; preds = %.noexc5
  call void @llvm.lifetime.end.p0(i64 120, ptr nonnull %3) #20
  %29 = getelementptr inbounds nuw i8, ptr %4, i64 24
  %30 = load i32, ptr %29, align 8, !tbaa !62
  %31 = icmp eq i32 %30, 0
  br label %32

32:                                               ; preds = %.thread, %28
  %33 = phi i1 [ %31, %28 ], [ false, %.thread ]
  store ptr getelementptr inbounds nuw inrange(-16, 48) (i8, ptr @_ZTVN6google8protobuf2io15FileInputStreamE, i64 16), ptr %4, align 8, !tbaa !25
  %34 = getelementptr inbounds nuw i8, ptr %4, i64 32
  call void @_ZN6google8protobuf2io25CopyingInputStreamAdaptorD1Ev(ptr noundef nonnull align 8 dereferenceable(52) %34) #20
  %35 = getelementptr inbounds nuw i8, ptr %4, i64 8
  call void @_ZN6google8protobuf2io15FileInputStream22CopyingFileInputStreamD1Ev(ptr noundef nonnull align 8 dereferenceable(21) %35) #20
  call void @llvm.lifetime.end.p0(i64 88, ptr nonnull %4) #20
  ret i1 %33

36:                                               ; preds = %27, %22, %.noexc3, %.noexc, %2
  %37 = landingpad { ptr, i32 }
          cleanup
  store ptr getelementptr inbounds nuw inrange(-16, 48) (i8, ptr @_ZTVN6google8protobuf2io15FileInputStreamE, i64 16), ptr %4, align 8, !tbaa !25
  %38 = getelementptr inbounds nuw i8, ptr %4, i64 32
  call void @_ZN6google8protobuf2io25CopyingInputStreamAdaptorD1Ev(ptr noundef nonnull align 8 dereferenceable(52) %38) #20
  %39 = getelementptr inbounds nuw i8, ptr %4, i64 8
  call void @_ZN6google8protobuf2io15FileInputStream22CopyingFileInputStreamD1Ev(ptr noundef nonnull align 8 dereferenceable(21) %39) #20
  call void @llvm.lifetime.end.p0(i64 88, ptr nonnull %4) #20
  resume { ptr, i32 } %37
}